; ModuleID = 'bench/graphviz/original/stress_model.ll'
source_filename = "bench/graphviz/original/stress_model.ll"
target datalayout = "e-m:e-p270:32:32-p271:32:32-p272:64:64-i64:64-i128:128-f80:128-n8:16:32:64-S128"
target triple = "x86_64-pc-linux-gnu"

@stderr = external local_unnamed_addr global ptr, align 8
@.str = private unnamed_addr constant [58 x i8] c"integer overflow when trying to allocate %zu * %zu bytes\0A\00", align 1

; Function Attrs: nounwind uwtable
define void @stress_model(i32 noundef %0, ptr noundef %1, ptr noundef readonly captures(address_is_null) %2, i32 noundef %3, ptr noundef writeonly captures(none) initializes((0, 4)) %4) local_unnamed_addr #0 {
  %6 = tail call zeroext i1 @SparseMatrix_is_symmetric(ptr noundef %1, i1 noundef zeroext false) #6
  %7 = getelementptr inbounds nuw i8, ptr %1, i64 16
  %8 = load i32, ptr %7, align 8, !tbaa !3
  %.not = icmp eq i32 %8, 1
  br i1 %6, label %9, label %10

9:                                                ; preds = %5
  br i1 %.not, label %15, label %.thread

10:                                               ; preds = %5
  br i1 %.not, label %11, label %.thread

11:                                               ; preds = %10
  %12 = tail call ptr @SparseMatrix_symmetrize(ptr noundef nonnull %1, i1 noundef zeroext false) #6
  %13 = tail call ptr @SparseMatrix_remove_diagonal(ptr noundef %12) #6
  br label %15

.thread:                                          ; preds = %9, %10
  %14 = tail call ptr @SparseMatrix_get_real_adjacency_matrix_symmetrized(ptr noundef nonnull %1) #6
  br label %15

15:                                               ; preds = %11, %.thread, %9
  %.041 = phi ptr [ %13, %11 ], [ %14, %.thread ], [ %1, %9 ]
  %16 = tail call ptr @SparseMatrix_remove_diagonal(ptr noundef %.041) #6
  store i32 0, ptr %4, align 4, !tbaa !12
  %17 = load i32, ptr %16, align 8, !tbaa !13
  %.not45 = icmp eq ptr %2, null
  br i1 %.not45, label %18, label %21

18:                                               ; preds = %15
  %19 = mul nsw i32 %17, %0
  %20 = sext i32 %19 to i64
  tail call fastcc void @gv_calloc(i64 noundef %20)
  unreachable

21:                                               ; preds = %15
  %22 = load ptr, ptr %2, align 8, !tbaa !14
  %23 = tail call ptr @SparseStressMajorizationSmoother_new(ptr noundef nonnull %16, i32 noundef %0, ptr noundef %22) #6
  %.not46 = icmp eq ptr %23, null
  br i1 %.not46, label %24, label %25

24:                                               ; preds = %21
  store i32 -1, ptr %4, align 4, !tbaa !12
  br label %39

25:                                               ; preds = %21
  %26 = getelementptr inbounds nuw i8, ptr %23, i64 64
  store double 1.000000e-01, ptr %26, align 8, !tbaa !16
  %27 = getelementptr inbounds nuw i8, ptr %23, i64 48
  store i32 2, ptr %27, align 8, !tbaa !20
  %28 = load ptr, ptr %2, align 8, !tbaa !14
  %29 = tail call double @SparseStressMajorizationSmoother_smooth(ptr noundef nonnull %23, i32 noundef %0, ptr noundef %28, i32 noundef %3) #6
  %30 = mul nsw i32 %17, %0
  %31 = icmp sgt i32 %30, 0
  br i1 %31, label %.lr.ph, label %._crit_edge

.lr.ph:                                           ; preds = %25
  %32 = getelementptr inbounds nuw i8, ptr %23, i64 56
  %33 = load ptr, ptr %2, align 8, !tbaa !14
  %wide.trip.count = zext nneg i32 %30 to i64
  br label %34

34:                                               ; preds = %.lr.ph, %34
  %indvars.iv = phi i64 [ 0, %.lr.ph ], [ %indvars.iv.next, %34 ]
  %35 = load double, ptr %32, align 8, !tbaa !21
  %36 = getelementptr inbounds nuw double, ptr %33, i64 %indvars.iv
  %37 = load double, ptr %36, align 8, !tbaa !22
  %38 = fdiv double %37, %35
  store double %38, ptr %36, align 8, !tbaa !22
  %indvars.iv.next = add nuw nsw i64 %indvars.iv, 1
  %exitcond.not = icmp eq i64 %indvars.iv.next, %wide.trip.count
  br i1 %exitcond.not, label %._crit_edge, label %34, !llvm.loop !23

._crit_edge:                                      ; preds = %34, %25
  tail call void @SparseStressMajorizationSmoother_delete(ptr noundef nonnull %23) #6
  br label %39

39:                                               ; preds = %._crit_edge, %24
  %.not47 = icmp eq ptr %16, %1
  br i1 %.not47, label %41, label %40

40:                                               ; preds = %39
  tail call void @SparseMatrix_delete(ptr noundef nonnull %16) #6
  br label %41

41:                                               ; preds = %40, %39
  ret void
}

declare zeroext i1 @SparseMatrix_is_symmetric(ptr noundef, i1 noundef zeroext) local_unnamed_addr #1

declare ptr @SparseMatrix_symmetrize(ptr noundef, i1 noundef zeroext) local_unnamed_addr #1

declare ptr @SparseMatrix_remove_diagonal(ptr noundef) local_unnamed_addr #1

declare ptr @SparseMatrix_get_real_adjacency_matrix_symmetrized(ptr noundef) local_unnamed_addr #1

; Function Attrs: inlinehint nofree nounwind uwtable
define internal fastcc void @gv_calloc(i64 noundef range(i64 -2147483648, 2147483648) %0) unnamed_addr #2 {
  %mul.ov = icmp ugt i64 %0, 2305843009213693951
  br i1 %mul.ov, label %2, label %5

2:                                                ; preds = %1
  %3 = load ptr, ptr @stderr, align 8, !tbaa !25
  %4 = tail call i32 (ptr, ptr, ...) @fprintf(ptr noundef %3, ptr noundef nonnull @.str, i64 noundef %0, i64 noundef 8) #7
  tail call fastcc void @graphviz_exit() #8
  unreachable

5:                                                ; preds = %1
  ret void
}

declare ptr @SparseStressMajorizationSmoother_new(ptr noundef, i32 noundef, ptr noundef) local_unnamed_addr #1

declare double @SparseStressMajorizationSmoother_smooth(ptr noundef, i32 noundef, ptr noundef, i32 noundef) local_unnamed_addr #1

declare void @SparseStressMajorizationSmoother_delete(ptr noundef) local_unnamed_addr #1

declare void @SparseMatrix_delete(ptr noundef) local_unnamed_addr #1

; Function Attrs: nofree nounwind
declare noundef i32 @fprintf(ptr noundef captures(none), ptr noundef readonly captures(none), ...) local_unnamed_addr #3

; Function Attrs: cold inlinehint nofree noreturn nounwind uwtable
define internal fastcc void @graphviz_exit() unnamed_addr #4 {
  tail call void @exit(i32 noundef 1) #9
  unreachable
}

; Function Attrs: nofree noreturn nounwind
declare void @exit(i32 noundef) local_unnamed_addr #5


!llvm.module.flags = !{!0, !1, !2}

!0 = !{i32 1, !"wchar_size", i32 4}
!1 = !{i32 8, !"PIC Level", i32 2}
!2 = !{i32 7, !"uwtable", i32 2}
!3 = !{!4, !5, i64 16}
!4 = !{!"SparseMatrix_struct", !5, i64 0, !5, i64 4, !5, i64 8, !5, i64 12, !5, i64 16, !8, i64 24, !8, i64 32, !9, i64 40, !5, i64 48, !10, i64 52, !10, i64 52, !10, i64 52, !11, i64 56}
!5 = !{!"int", !6, i64 0}
!6 = !{!"omnipotent char", !7, i64 0}
!7 = !{!"Simple C/C++ TBAA"}
!8 = !{!"p1 int", !9, i64 0}
!9 = !{!"any pointer", !6, i64 0}
!10 = !{!"_Bool", !6, i64 0}
!11 = !{!"long", !6, i64 0}
!12 = !{!5, !5, i64 0}
!13 = !{!4, !5, i64 0}
!14 = !{!15, !15, i64 0}
!15 = !{!"p1 double", !9, i64 0}
!16 = !{!17, !19, i64 64}
!17 = !{!"StressMajorizationSmoother_struct", !18, i64 0, !18, i64 8, !18, i64 16, !15, i64 24, !9, i64 32, !9, i64 40, !5, i64 48, !19, i64 56, !19, i64 64, !19, i64 72}
!18 = !{!"p1 _ZTS19SparseMatrix_struct", !9, i64 0}
!19 = !{!"double", !6, i64 0}
!20 = !{!17, !5, i64 48}
!21 = !{!17, !19, i64 56}
!22 = !{!19, !19, i64 0}
!23 = distinct !{!23, !24}
!24 = !{!"llvm.loop.mustprogress"}
!25 = !{!26, !26, i64 0}
!26 = !{!"p1 _ZTS8_IO_FILE", !9, i64 0}
